target datalayout = "e-m:e-p270:32:32-p271:32:32-p272:64:64-i64:64-i128:128-f80:128-n8:16:32:64-S128"
target triple = "x86_64-pc-linux-gnu"

%struct.pointf_s = type { double, double }
%struct.GVJ_s = type { ptr, ptr, ptr, ptr, ptr, ptr, i32, ptr, ptr, ptr, ptr, i64, i64, ptr, i32, %struct.gvplugin_active_render_s, %struct.gvplugin_active_device_s, %struct.gvplugin_active_loadimage_t, ptr, %struct.pointf_s, i8, ptr, i32, ptr, i8, ptr, i32, i32, i32, %struct.point, %struct.point, %struct.point, %struct.point, %struct.point, i32, %struct.boxf, %struct.pointf_s, %struct.boxf, %struct.boxf, %struct.pointf_s, %struct.pointf_s, double, i32, %struct.pointf_s, %struct.boxf, %struct.pointf_s, %struct.pointf_s, i32, i32, %struct.box, %struct.box, %struct.pointf_s, %struct.pointf_s, %struct.pointf_s, i8, i8, i8, i8, i8, i8, %struct.pointf_s, %struct.pointf_s, ptr, ptr, ptr, ptr, ptr, ptr, i64, ptr }
%struct.gvplugin_active_render_s = type { ptr, i32, ptr, ptr }
%struct.gvplugin_active_device_s = type { ptr, i32, ptr, ptr }
%struct.gvplugin_active_loadimage_t = type { ptr, i32, ptr }
%struct.point = type { i32, i32 }
%struct.boxf = type { %struct.pointf_s, %struct.pointf_s }
%struct.box = type { %struct.point, %struct.point }
%struct.GVC_s = type { %struct.GVCOMMON_s, ptr, i8, ptr, i32, ptr, ptr, [5 x ptr], [5 x ptr], ptr, ptr, %struct.dtdisc_s_, ptr, %struct.gvplugin_active_textlayout_s, ptr, ptr, ptr, %struct.gvplugin_active_layout_s, ptr, ptr, ptr, %struct.pointf_s, %struct.pointf_s, %struct.pointf_s, %struct.point, %struct.boxf, i32, i8, i8, i8, ptr, ptr, ptr, ptr, i32, ptr, ptr, double, ptr, %struct.color_s, i32 }
%struct.GVCOMMON_s = type { ptr, ptr, i32, i8, i8, ptr, ptr, ptr, i32, ptr, i32 }
%struct.dtdisc_s_ = type { i32, i32, i32, ptr, ptr, ptr }
%struct.gvplugin_active_textlayout_s = type { ptr, i32, ptr }
%struct.gvplugin_active_layout_s = type { ptr, i32, ptr, ptr }
%struct.color_s = type { %union.anon, i32 }
%union.anon = type { [4 x double] }
%struct.obj_state_s = type { ptr, i32, %union.anon.0, i32, %struct.color_s, %struct.color_s, %struct.color_s, i32, double, i32, i32, double, ptr, double, double, double, ptr, ptr, ptr, ptr, ptr, ptr, ptr, ptr, ptr, ptr, ptr, ptr, ptr, ptr, ptr, ptr, ptr, i16, i32, i64, ptr, i64, ptr, ptr, i32, ptr, i32, ptr }
%union.anon.0 = type { ptr }

@.str.33 = private unnamed_addr constant [10 x i8] c"</title>\0A\00", align 1
@.str.35 = private unnamed_addr constant [10 x i8] c">\0A<title>\00", align 1
@.str.36 = private unnamed_addr constant [5 x i8] c"node\00", align 1

; Function Attrs: nounwind uwtable
define internal void @svg_begin_node(ptr noundef %0) #0 {
  %2 = alloca ptr, align 8
  %3 = alloca ptr, align 8
  %4 = alloca ptr, align 8
  store ptr %0, ptr %2, align 8, !tbaa !3
  call void @llvm.lifetime.start.p0(i64 8, ptr %3) #9
  %5 = load ptr, ptr %2, align 8, !tbaa !3
  %6 = getelementptr inbounds nuw %struct.GVJ_s, ptr %5, i32 0, i32 4
  %7 = load ptr, ptr %6, align 8, !tbaa !50
  store ptr %7, ptr %3, align 8, !tbaa !51
  call void @llvm.lifetime.start.p0(i64 8, ptr %4) #9
  %8 = load ptr, ptr %2, align 8, !tbaa !3
  %9 = getelementptr inbounds nuw %struct.GVJ_s, ptr %8, i32 0, i32 28
  %10 = load i32, ptr %9, align 8, !tbaa !70
  %11 = icmp sgt i32 %10, 1
  br i1 %11, label %12, label %24

12:                                               ; preds = %1
  %13 = load ptr, ptr %2, align 8, !tbaa !3
  %14 = getelementptr inbounds nuw %struct.GVJ_s, ptr %13, i32 0, i32 0
  %15 = load ptr, ptr %14, align 8, !tbaa !8
  %16 = getelementptr inbounds nuw %struct.GVC_s, ptr %15, i32 0, i32 33
  %17 = load ptr, ptr %16, align 8, !tbaa !71
  %18 = load ptr, ptr %2, align 8, !tbaa !3
  %19 = getelementptr inbounds nuw %struct.GVJ_s, ptr %18, i32 0, i32 28
  %20 = load i32, ptr %19, align 8, !tbaa !70
  %21 = sext i32 %20 to i64
  %22 = getelementptr inbounds ptr, ptr %17, i64 %21
  %23 = load ptr, ptr %22, align 8, !tbaa !46
  store ptr %23, ptr %4, align 8, !tbaa !46
  br label %25

24:                                               ; preds = %1
  store ptr null, ptr %4, align 8, !tbaa !46
  br label %25

25:                                               ; preds = %24, %12
  %26 = load ptr, ptr %2, align 8, !tbaa !3
  %27 = load ptr, ptr %3, align 8, !tbaa !51
  %28 = getelementptr inbounds nuw %struct.obj_state_s, ptr %27, i32 0, i32 21
  %29 = load ptr, ptr %28, align 8, !tbaa !61
  %30 = load ptr, ptr %4, align 8, !tbaa !46
  %31 = load ptr, ptr %3, align 8, !tbaa !51
  %32 = getelementptr inbounds nuw %struct.obj_state_s, ptr %31, i32 0, i32 2
  %33 = load ptr, ptr %32, align 8, !tbaa !47
  call void @svg_print_id_class(ptr noundef %26, ptr noundef %29, ptr noundef %30, ptr noundef @.str.36, ptr noundef %33)
  %34 = load ptr, ptr %2, align 8, !tbaa !3
  %35 = call i32 @gvputs(ptr noundef %34, ptr noundef @.str.35)
  %36 = load ptr, ptr %2, align 8, !tbaa !3
  %37 = load ptr, ptr %3, align 8, !tbaa !51
  %38 = getelementptr inbounds nuw %struct.obj_state_s, ptr %37, i32 0, i32 2
  %39 = load ptr, ptr %38, align 8, !tbaa !47
  %40 = call ptr @agnameof(ptr noundef %39)
  %41 = call i32 @gvputs_xml(ptr noundef %36, ptr noundef %40)
  %42 = load ptr, ptr %2, align 8, !tbaa !3
  %43 = call i32 @gvputs(ptr noundef %42, ptr noundef @.str.33)
  call void @llvm.lifetime.end.p0(i64 8, ptr %4) #9
  call void @llvm.lifetime.end.p0(i64 8, ptr %3) #9
  ret void
}