; Function Attrs: nounwind uwtable
define internal void @svg_begin_node(ptr noundef %0) #0 {
  %2 = getelementptr inbounds nuw i8, ptr %0, i64 32
  %3 = load ptr, ptr %2, align 8, !tbaa !50
  %4 = getelementptr inbounds nuw i8, ptr %0, i64 288
  %5 = load i32, ptr %4, align 8, !tbaa !68
  %6 = icmp sgt i32 %5, 1
  br i1 %6, label %7, label %14

7:                                                ; preds = %1
  %8 = load ptr, ptr %0, align 8, !tbaa !30
  %9 = getelementptr inbounds nuw i8, ptr %8, i64 488
  %10 = load ptr, ptr %9, align 8, !tbaa !69
  %11 = zext nneg i32 %5 to i64
  %12 = getelementptr inbounds nuw ptr, ptr %10, i64 %11
  %13 = load ptr, ptr %12, align 8, !tbaa !49
  br label %14

14:                                               ; preds = %1, %7
  %.0 = phi ptr [ %13, %7 ], [ null, %1 ]
  %15 = getelementptr inbounds nuw i8, ptr %3, i64 256
  %16 = load ptr, ptr %15, align 8, !tbaa !59
  %17 = getelementptr inbounds nuw i8, ptr %3, i64 16
  %18 = load ptr, ptr %17, align 8, !tbaa !46
  tail call fastcc void @svg_print_id_class(ptr noundef nonnull %0, ptr noundef %16, ptr noundef %.0, ptr noundef nonnull @.str.36, ptr noundef %18)
  %19 = tail call i32 @gvputs(ptr noundef nonnull %0, ptr noundef nonnull @.str.35) #11
  %20 = load ptr, ptr %17, align 8, !tbaa !46
  %21 = tail call ptr @agnameof(ptr noundef %20) #11
  %22 = tail call i32 @gvputs_xml(ptr noundef nonnull %0, ptr noundef %21) #11
  %23 = tail call i32 @gvputs(ptr noundef nonnull %0, ptr noundef nonnull @.str.33) #11
  ret void
}